target datalayout = "e-m:e-p270:32:32-p271:32:32-p272:64:64-i64:64-i128:128-f80:128-n8:16:32:64-S128"
target triple = "x86_64-pc-linux-gnu"

%class.DCmdWithParser = type { %class.DCmd.base, %class.DCmdParser }
%class.DCmd.base = type <{ ptr, ptr, i8 }>
%class.DCmdParser = type { ptr, ptr }
%class.GenDCmdArgument.base = type <{ ptr, ptr, ptr, ptr, ptr, ptr, i8, i8, i8 }>
%class.DCmdArgument.96 = type { %class.GenDCmdArgument.base, ptr }
%class.DCmd = type <{ ptr, ptr, i8, [7 x i8] }>
%class.GenDCmdArgument = type <{ ptr, ptr, ptr, ptr, ptr, ptr, i8, i8, i8, [5 x i8] }>
%class.outputStream = type { ptr, i32, i8, i32, i64, %class.TimeStamp, ptr, i64 }
%class.TimeStamp = type { i64 }
%class.stringStream = type <{ %class.outputStream, ptr, i64, i64, i8, [48 x i8], [7 x i8] }>
%class.SystemDumpMapDCmd = type { %class.DCmdWithParser, %class.DCmdArgument.96 }
%class.fileStream = type <{ %class.outputStream, ptr, i8, [7 x i8] }>

@.str.170 = private unnamed_addr constant [21 x i8] c"vm_memory_map_%d.txt\00", align 1
@.str.171 = private unnamed_addr constant [47 x i8] c"(NMT is disabled, will not annotate mappings).\00", align 1
@.str.172 = private unnamed_addr constant [27 x i8] c"Memory map dumped to \22%s\22.\00", align 1
@.str.173 = private unnamed_addr constant [38 x i8] c"Failed to open \22%s\22 for writing (%s).\00", align 1
@_ZN10MemTracker15_tracking_levelE = external global i32, align 4

; Function Attrs: mustprogress nounwind uwtable
define linkonce_odr hidden noundef ptr @_ZNK4DCmd6outputEv(ptr noundef nonnull align 8 dereferenceable(17) %0) #1 comdat align 2 {
  %2 = alloca ptr, align 8
  store ptr %0, ptr %2, align 8
  %3 = load ptr, ptr %2, align 8
  %4 = getelementptr inbounds %class.DCmd, ptr %3, i32 0, i32 1
  %5 = load ptr, ptr %4, align 8
  ret ptr %5
}

; Function Attrs: mustprogress nounwind uwtable
define linkonce_odr hidden noundef zeroext i1 @_ZN10MemTracker7enabledEv() #1 comdat align 2 {
  %1 = load i32, ptr @_ZN10MemTracker15_tracking_levelE, align 4
  %2 = icmp sgt i32 %1, 1
  ret i1 %2
}

; Function Attrs: mustprogress nounwind uwtable
define linkonce_odr hidden noundef zeroext i1 @_ZNK10fileStream7is_openEv(ptr noundef nonnull align 8 dereferenceable(65) %0) #1 comdat align 2 {
  %2 = alloca ptr, align 8
  store ptr %0, ptr %2, align 8
  %3 = load ptr, ptr %2, align 8
  %4 = getelementptr inbounds %class.fileStream, ptr %3, i32 0, i32 1
  %5 = load ptr, ptr %4, align 8
  %6 = icmp ne ptr %5, null
  ret i1 %6
}

; Function Attrs: mustprogress nounwind uwtable
define linkonce_odr hidden noundef ptr @_ZNK12stringStream4baseEv(ptr noundef nonnull align 8 dereferenceable(129) %0) #1 comdat align 2 {
  %2 = alloca ptr, align 8
  store ptr %0, ptr %2, align 8
  %3 = load ptr, ptr %2, align 8
  %4 = getelementptr inbounds %class.stringStream, ptr %3, i32 0, i32 1
  %5 = load ptr, ptr %4, align 8
  ret ptr %5
}

; Function Attrs: mustprogress nounwind uwtable
define linkonce_odr hidden noundef ptr @_ZNK12DCmdArgumentIPcE5valueEv(ptr noundef nonnull align 8 dereferenceable(64) %0) #1 comdat align 2 {
  %2 = alloca ptr, align 8
  store ptr %0, ptr %2, align 8
  %3 = load ptr, ptr %2, align 8
  %4 = getelementptr inbounds %class.DCmdArgument.96, ptr %3, i32 0, i32 1
  %5 = load ptr, ptr %4, align 8
  ret ptr %5
}

; Function Attrs: mustprogress nounwind uwtable
define linkonce_odr hidden noundef zeroext i1 @_ZNK15GenDCmdArgument6is_setEv(ptr noundef nonnull align 8 dereferenceable(51) %0) #1 comdat align 2 {
  %2 = alloca ptr, align 8
  store ptr %0, ptr %2, align 8
  %3 = load ptr, ptr %2, align 8
  %4 = getelementptr inbounds %class.GenDCmdArgument, ptr %3, i32 0, i32 6
  %5 = load i8, ptr %4, align 8
  %6 = trunc i8 %5 to i1
  ret i1 %6
}

; Function Attrs: mustprogress nounwind uwtable
define hidden void @_ZN17SystemDumpMapDCmd7executeE10DCmdSourceP10JavaThread(ptr noundef nonnull align 8 dereferenceable(104) %0, i32 noundef %1, ptr noundef %2) unnamed_addr #1 align 2 {
  %4 = alloca ptr, align 8
  %5 = alloca i32, align 4
  %6 = alloca ptr, align 8
  %7 = alloca %class.stringStream, align 8
  %8 = alloca ptr, align 8
  %9 = alloca %class.fileStream, align 8
  %10 = alloca [4097 x i8], align 16
  %11 = alloca ptr, align 8
  store ptr %0, ptr %4, align 8
  store i32 %1, ptr %5, align 4
  store ptr %2, ptr %6, align 8
  %12 = load ptr, ptr %4, align 8
  call void @_ZN12stringStreamC1Em(ptr noundef nonnull align 8 dereferenceable(129) %7, i64 noundef 0)
  store ptr null, ptr %8, align 8
  %13 = getelementptr inbounds %class.SystemDumpMapDCmd, ptr %12, i32 0, i32 1
  %14 = call noundef zeroext i1 @_ZNK15GenDCmdArgument6is_setEv(ptr noundef nonnull align 8 dereferenceable(51) %13)
  br i1 %14, label %15, label %18

15:                                               ; preds = %3
  %16 = getelementptr inbounds %class.SystemDumpMapDCmd, ptr %12, i32 0, i32 1
  %17 = call noundef ptr @_ZNK12DCmdArgumentIPcE5valueEv(ptr noundef nonnull align 8 dereferenceable(64) %16)
  store ptr %17, ptr %8, align 8
  br label %21

18:                                               ; preds = %3
  %19 = call noundef i32 @_ZN2os18current_process_idEv()
  call void (ptr, ptr, ...) @_ZN12outputStream5printEPKcz(ptr noundef nonnull align 8 dereferenceable(56) %7, ptr noundef @.str.170, i32 noundef %19)
  %20 = call noundef ptr @_ZNK12stringStream4baseEv(ptr noundef nonnull align 8 dereferenceable(129) %7)
  store ptr %20, ptr %8, align 8
  br label %21

21:                                               ; preds = %18, %15
  %22 = load ptr, ptr %8, align 8
  call void @_ZN10fileStreamC1EPKc(ptr noundef nonnull align 8 dereferenceable(65) %9, ptr noundef %22)
  %23 = call noundef zeroext i1 @_ZNK10fileStream7is_openEv(ptr noundef nonnull align 8 dereferenceable(65) %9)
  br i1 %23, label %24, label %42

24:                                               ; preds = %21
  %25 = call noundef zeroext i1 @_ZN10MemTracker7enabledEv()
  br i1 %25, label %28, label %26

26:                                               ; preds = %24
  %27 = call noundef ptr @_ZNK4DCmd6outputEv(ptr noundef nonnull align 8 dereferenceable(17) %12)
  call void (ptr, ptr, ...) @_ZN12outputStream8print_crEPKcz(ptr noundef nonnull align 8 dereferenceable(56) %27, ptr noundef @.str.171)
  br label %28

28:                                               ; preds = %26, %24
  call void @_ZN13MemMapPrinter18print_all_mappingsEP12outputStream(ptr noundef %9)
  %29 = load ptr, ptr %8, align 8
  %30 = getelementptr inbounds [4097 x i8], ptr %10, i64 0, i64 0
  %31 = call noundef ptr @_ZN2os5Posix8realpathEPKcPcm(ptr noundef %29, ptr noundef %30, i64 noundef 4097)
  store ptr %31, ptr %11, align 8
  %32 = load ptr, ptr %11, align 8
  %33 = icmp ne ptr %32, null
  br i1 %33, label %34, label %36

34:                                               ; preds = %28
  %35 = load ptr, ptr %11, align 8
  br label %38

36:                                               ; preds = %28
  %37 = load ptr, ptr %8, align 8
  br label %38

38:                                               ; preds = %36, %34
  %39 = phi ptr [ %35, %34 ], [ %37, %36 ]
  store ptr %39, ptr %8, align 8
  %40 = call noundef ptr @_ZNK4DCmd6outputEv(ptr noundef nonnull align 8 dereferenceable(17) %12)
  %41 = load ptr, ptr %8, align 8
  call void (ptr, ptr, ...) @_ZN12outputStream8print_crEPKcz(ptr noundef nonnull align 8 dereferenceable(56) %40, ptr noundef @.str.172, ptr noundef %41)
  br label %48

42:                                               ; preds = %21
  %43 = call noundef ptr @_ZNK4DCmd6outputEv(ptr noundef nonnull align 8 dereferenceable(17) %12)
  %44 = load ptr, ptr %8, align 8
  %45 = call ptr @__errno_location() #13
  %46 = load i32, ptr %45, align 4
  %47 = call noundef ptr @_ZN2os8strerrorEi(i32 noundef %46)
  call void (ptr, ptr, ...) @_ZN12outputStream8print_crEPKcz(ptr noundef nonnull align 8 dereferenceable(56) %43, ptr noundef @.str.173, ptr noundef %44, ptr noundef %47)
  br label %48

48:                                               ; preds = %42, %38
  call void @_ZN10fileStreamD1Ev(ptr noundef nonnull align 8 dereferenceable(65) %9) #11
  call void @_ZN12stringStreamD1Ev(ptr noundef nonnull align 8 dereferenceable(129) %7) #11
  ret void
}